; Function Attrs: inlinehint nounwind uwtable
define internal fastcc void @agxbput(ptr noundef captures(none) %0, ptr noundef readonly captures(none) %1) unnamed_addr #5 {
  %3 = tail call i64 @strlen(ptr noundef nonnull dereferenceable(1) %1) #18
  %4 = icmp eq i64 %3, 0
  br i1 %4, label %agxbput_n.exit, label %5

5:                                                ; preds = %2
  %6 = getelementptr i8, ptr %0, i64 31
  %.val.i.i = load i8, ptr %6, align 1, !tbaa !38
  %.not.i.i = icmp eq i8 %.val.i.i, -1
  br i1 %.not.i.i, label %8, label %agxbsizeof.exit.i

agxbsizeof.exit.i:                                ; preds = %5
  %7 = zext i8 %.val.i.i to i64
  br label %agxblen.exit.i

8:                                                ; preds = %5
  %9 = getelementptr inbounds nuw i8, ptr %0, i64 16
  %10 = load i64, ptr %9, align 8, !tbaa !38
  %11 = getelementptr inbounds nuw i8, ptr %0, i64 8
  %12 = load i64, ptr %11, align 8, !tbaa !38
  br label %agxblen.exit.i

agxblen.exit.i:                                   ; preds = %8, %agxbsizeof.exit.i
  %.0.i30.i = phi i64 [ 31, %agxbsizeof.exit.i ], [ %10, %8 ]
  %.0.i24.i = phi i64 [ %7, %agxbsizeof.exit.i ], [ %12, %8 ]
  %13 = sub i64 %.0.i30.i, %.0.i24.i
  %14 = icmp ugt i64 %3, %13
  br i1 %14, label %15, label %16

15:                                               ; preds = %agxblen.exit.i
  tail call fastcc void @agxbmore(ptr noundef nonnull %0, i64 noundef %3)
  %.val.i25.pre.i = load i8, ptr %6, align 1, !tbaa !38
  br label %16

16:                                               ; preds = %15, %agxblen.exit.i
  %.val.i25.i = phi i8 [ %.val.i25.pre.i, %15 ], [ %.val.i.i, %agxblen.exit.i ]
  %.not.i26.i = icmp eq i8 %.val.i25.i, -1
  br i1 %.not.i26.i, label %23, label %17

17:                                               ; preds = %16
  %18 = zext i8 %.val.i25.i to i64
  %19 = getelementptr inbounds nuw [31 x i8], ptr %0, i64 0, i64 %18
  tail call void @llvm.memcpy.p0.p0.i64(ptr align 1 %19, ptr nonnull readonly align 1 %1, i64 %3, i1 false)
  %20 = trunc i64 %3 to i8
  %21 = load i8, ptr %6, align 1, !tbaa !38
  %22 = add i8 %21, %20
  store i8 %22, ptr %6, align 1, !tbaa !38
  br label %agxbput_n.exit

23:                                               ; preds = %16
  %24 = getelementptr inbounds nuw i8, ptr %0, i64 8
  %25 = load i64, ptr %24, align 8, !tbaa !38
  %26 = load ptr, ptr %0, align 8, !tbaa !38
  %27 = getelementptr inbounds nuw i8, ptr %26, i64 %25
  tail call void @llvm.memcpy.p0.p0.i64(ptr align 1 %27, ptr nonnull readonly align 1 %1, i64 %3, i1 false)
  %28 = load i64, ptr %24, align 8, !tbaa !38
  %29 = add i64 %28, %3
  store i64 %29, ptr %24, align 8, !tbaa !38
  br label %agxbput_n.exit

agxbput_n.exit:                                   ; preds = %2, %17, %23
  ret void
}